target datalayout = "e-m:e-p270:32:32-p271:32:32-p272:64:64-i64:64-i128:128-f80:128-n8:16:32:64-S128"
target triple = "x86_64-pc-linux-gnu"

%class.Register = type { i32 }
%class.XMMRegister = type { i32 }
%class.RelocationHolder = type { [40 x i8] }
%class.MachNode = type { %class.Node.base, i8, i16, ptr }
%class.Node.base = type <{ ptr, ptr, ptr, i32, i32, i32, i32, i32, i32, i32 }>
%class.Address = type { %class.Register, %class.Register, %class.XMMRegister, i32, i32, i8, [3 x i8], %class.RelocationHolder }
%class.MachTypeNode = type { %class.MachNode, ptr }
%class.andI_mem_immNode = type { %class.MachTypeNode, [4 x ptr] }

; Function Attrs: mustprogress nounwind uwtable
define linkonce_odr hidden noundef ptr @_ZNK16andI_mem_immNode10opnd_arrayEj(ptr noundef nonnull align 8 dereferenceable(104) %0, i32 noundef %1) #1 comdat align 2 {
  %3 = alloca ptr, align 8
  %4 = alloca i32, align 4
  store ptr %0, ptr %3, align 8
  store i32 %1, ptr %4, align 4
  %5 = load ptr, ptr %3, align 8
  %6 = getelementptr inbounds %class.andI_mem_immNode, ptr %5, i32 0, i32 1
  %7 = load i32, ptr %4, align 4
  %8 = zext i32 %7 to i64
  %9 = getelementptr inbounds [4 x ptr], ptr %6, i64 0, i64 %8
  %10 = load ptr, ptr %9, align 8
  ret ptr %10
}

; Function Attrs: mustprogress nounwind uwtable
define hidden void @_ZNK16andI_mem_immNode4emitEP17C2_MacroAssemblerP13PhaseRegAlloc(ptr noundef nonnull align 8 dereferenceable(104) %0, ptr noundef %1, ptr noundef %2) unnamed_addr #1 align 2 {
  %4 = alloca ptr, align 8
  %5 = alloca ptr, align 8
  %6 = alloca ptr, align 8
  %7 = alloca i32, align 4
  %8 = alloca i32, align 4
  %9 = alloca i32, align 4
  %10 = alloca %class.Address, align 8
  store ptr %0, ptr %4, align 8
  store ptr %1, ptr %5, align 8
  store ptr %2, ptr %6, align 8
  %11 = load ptr, ptr %4, align 8
  store i32 2, ptr %7, align 4
  store i32 2, ptr %8, align 4
  %12 = load i32, ptr %8, align 4
  %13 = call noundef ptr @_ZNK16andI_mem_immNode10opnd_arrayEj(ptr noundef nonnull align 8 dereferenceable(104) %11, i32 noundef 1)
  %14 = load ptr, ptr %13, align 8
  %15 = getelementptr inbounds ptr, ptr %14, i64 1
  %16 = load ptr, ptr %15, align 8
  %17 = call noundef i32 %16(ptr noundef nonnull align 8 dereferenceable(8) %13)
  %18 = add i32 %12, %17
  store i32 %18, ptr %9, align 4
  %19 = load ptr, ptr %5, align 8
  %20 = call noundef ptr @_ZNK16andI_mem_immNode10opnd_arrayEj(ptr noundef nonnull align 8 dereferenceable(104) %11, i32 noundef 1)
  %21 = load ptr, ptr %6, align 8
  %22 = load i32, ptr %8, align 4
  %23 = load ptr, ptr %20, align 8
  %24 = getelementptr inbounds ptr, ptr %23, i64 13
  %25 = load ptr, ptr %24, align 8
  %26 = call noundef i32 %25(ptr noundef nonnull align 8 dereferenceable(8) %20, ptr noundef %21, ptr noundef %11, i32 noundef %22)
  %27 = call noundef ptr @_ZNK16andI_mem_immNode10opnd_arrayEj(ptr noundef nonnull align 8 dereferenceable(104) %11, i32 noundef 1)
  %28 = load ptr, ptr %6, align 8
  %29 = load i32, ptr %8, align 4
  %30 = load ptr, ptr %27, align 8
  %31 = getelementptr inbounds ptr, ptr %30, i64 14
  %32 = load ptr, ptr %31, align 8
  %33 = call noundef i32 %32(ptr noundef nonnull align 8 dereferenceable(8) %27, ptr noundef %28, ptr noundef %11, i32 noundef %29)
  %34 = call noundef ptr @_ZNK16andI_mem_immNode10opnd_arrayEj(ptr noundef nonnull align 8 dereferenceable(104) %11, i32 noundef 1)
  %35 = load ptr, ptr %34, align 8
  %36 = getelementptr inbounds ptr, ptr %35, i64 15
  %37 = load ptr, ptr %36, align 8
  %38 = call noundef i32 %37(ptr noundef nonnull align 8 dereferenceable(8) %34)
  %39 = call noundef ptr @_ZNK16andI_mem_immNode10opnd_arrayEj(ptr noundef nonnull align 8 dereferenceable(104) %11, i32 noundef 1)
  %40 = load ptr, ptr %6, align 8
  %41 = load i32, ptr %8, align 4
  %42 = load ptr, ptr %39, align 8
  %43 = getelementptr inbounds ptr, ptr %42, i64 16
  %44 = load ptr, ptr %43, align 8
  %45 = call noundef i32 %44(ptr noundef nonnull align 8 dereferenceable(8) %39, ptr noundef %40, ptr noundef %11, i32 noundef %41)
  %46 = call noundef ptr @_ZNK16andI_mem_immNode10opnd_arrayEj(ptr noundef nonnull align 8 dereferenceable(104) %11, i32 noundef 1)
  %47 = load ptr, ptr %46, align 8
  %48 = getelementptr inbounds ptr, ptr %47, i64 17
  %49 = load ptr, ptr %48, align 8
  %50 = call noundef i32 %49(ptr noundef nonnull align 8 dereferenceable(8) %46)
  call void @_ZN7Address8make_rawEiiiiN9relocInfo9relocTypeE(ptr dead_on_unwind writable sret(%class.Address) align 8 %10, i32 noundef %26, i32 noundef %33, i32 noundef %38, i32 noundef %45, i32 noundef %50)
  %51 = call noundef ptr @_ZNK16andI_mem_immNode10opnd_arrayEj(ptr noundef nonnull align 8 dereferenceable(104) %11, i32 noundef 2)
  %52 = load ptr, ptr %51, align 8
  %53 = getelementptr inbounds ptr, ptr %52, i64 6
  %54 = load ptr, ptr %53, align 8
  %55 = call noundef i64 %54(ptr noundef nonnull align 8 dereferenceable(8) %51)
  %56 = trunc i64 %55 to i32
  call void @_ZN9Assembler4andlE7Addressi(ptr noundef nonnull align 8 dereferenceable(40) %19, ptr noundef %10, i32 noundef %56)
  ret void
}